target datalayout = "e-m:e-p270:32:32-p271:32:32-p272:64:64-i64:64-i128:128-f80:128-n8:16:32:64-S128"
target triple = "x86_64-pc-linux-gnu"

%"class.icu_77::StringPiece" = type <{ ptr, i32, [4 x i8] }>

; Function Attrs: mustprogress nounwind uwtable
define void @_ZN6icu_7711StringPiece3setEPKc(ptr noundef nonnull align 8 dereferenceable(12) %0, ptr noundef %1) #0 align 2 {
  %3 = alloca ptr, align 8
  %4 = alloca ptr, align 8
  store ptr %0, ptr %3, align 8, !tbaa !3
  store ptr %1, ptr %4, align 8, !tbaa !8
  %5 = load ptr, ptr %3, align 8
  %6 = load ptr, ptr %4, align 8, !tbaa !8
  %7 = getelementptr inbounds nuw %"class.icu_77::StringPiece", ptr %5, i32 0, i32 0
  store ptr %6, ptr %7, align 8, !tbaa !10
  %8 = load ptr, ptr %4, align 8, !tbaa !8
  %9 = icmp ne ptr %8, null
  br i1 %9, label %10, label %15

10:                                               ; preds = %2
  %11 = load ptr, ptr %4, align 8, !tbaa !8
  %12 = call i64 @strlen(ptr noundef %11) #4
  %13 = trunc i64 %12 to i32
  %14 = getelementptr inbounds nuw %"class.icu_77::StringPiece", ptr %5, i32 0, i32 1
  store i32 %13, ptr %14, align 8, !tbaa !13
  br label %17

15:                                               ; preds = %2
  %16 = getelementptr inbounds nuw %"class.icu_77::StringPiece", ptr %5, i32 0, i32 1
  store i32 0, ptr %16, align 8, !tbaa !13
  br label %17

17:                                               ; preds = %15, %10
  ret void
}