; Function Attrs: mustprogress nofree nounwind willreturn memory(argmem: readwrite) uwtable
define void @_ZN6icu_7711StringPiece3setEPKc(ptr noundef nonnull writeonly align 8 captures(none) dereferenceable(12) initializes((0, 12)) %0, ptr noundef %1) local_unnamed_addr #0 align 2 {
  store ptr %1, ptr %0, align 8, !tbaa !3
  %.not = icmp eq ptr %1, null
  br i1 %.not, label %6, label %3

3:                                                ; preds = %2
  %4 = tail call i64 @strlen(ptr noundef nonnull dereferenceable(1) %1) #7
  %5 = trunc i64 %4 to i32
  br label %6

6:                                                ; preds = %2, %3
  %.sink = phi i32 [ %5, %3 ], [ 0, %2 ]
  %7 = getelementptr inbounds nuw i8, ptr %0, i64 8
  store i32 %.sink, ptr %7, align 8, !tbaa !10
  ret void
}